; Function Attrs: mustprogress nofree norecurse nosync nounwind willreturn memory(argmem: write) uwtable
define dso_local void @nghttp2_buf_wrap_init(ptr noundef writeonly captures(none) initializes((0, 40)) %0, ptr noundef %1, i64 noundef %2) local_unnamed_addr #0 {
  %4 = getelementptr inbounds nuw i8, ptr %0, i64 8
  store ptr %1, ptr %4, align 8, !tbaa !13
  %5 = getelementptr inbounds nuw i8, ptr %0, i64 32
  store ptr %1, ptr %5, align 8, !tbaa !12
  %6 = getelementptr inbounds nuw i8, ptr %0, i64 24
  store ptr %1, ptr %6, align 8, !tbaa !11
  %7 = getelementptr inbounds nuw i8, ptr %0, i64 16
  store ptr %1, ptr %7, align 8, !tbaa !4
  store ptr %1, ptr %0, align 8, !tbaa !10
  %.not = icmp eq i64 %2, 0
  br i1 %.not, label %10, label %8

8:                                                ; preds = %3
  %9 = getelementptr inbounds nuw i8, ptr %1, i64 %2
  store ptr %9, ptr %4, align 8, !tbaa !13
  br label %10

10:                                               ; preds = %8, %3
  ret void
}